target datalayout = "e-m:e-p270:32:32-p271:32:32-p272:64:64-i64:64-i128:128-f80:128-n8:16:32:64-S128"
target triple = "x86_64-pc-linux-gnu"

%"struct.cv::gimpl::FluidMapper" = type <{ ptr, double, i32, [4 x i8] }>
%"struct.std::pair.137" = type { i32, i32 }

; Function Attrs: mustprogress nounwind uwtable
define linkonce_odr hidden void @_ZNSt4pairIiiEC2IRiS2_TnNSt9enable_ifIXaaclsr5_PCCPE22_MoveConstructiblePairIT_T0_EEclsr5_PCCPE30_ImplicitlyMoveConvertiblePairIS4_S5_EEEbE4typeELb1EEEOS4_OS5_(ptr noundef nonnull align 4 dereferenceable(8) %0, ptr noundef nonnull align 4 dereferenceable(4) %1, ptr noundef nonnull align 4 dereferenceable(4) %2) unnamed_addr #7 comdat align 2 {
  %4 = alloca ptr, align 8
  %5 = alloca ptr, align 8
  %6 = alloca ptr, align 8
  store ptr %0, ptr %4, align 8, !tbaa !821
  store ptr %1, ptr %5, align 8, !tbaa !128
  store ptr %2, ptr %6, align 8, !tbaa !128
  %7 = load ptr, ptr %4, align 8
  %8 = getelementptr inbounds nuw %"struct.std::pair.137", ptr %7, i32 0, i32 0
  %9 = load ptr, ptr %5, align 8, !tbaa !128
  %10 = load i32, ptr %9, align 4, !tbaa !146
  store i32 %10, ptr %8, align 4, !tbaa !244
  %11 = getelementptr inbounds nuw %"struct.std::pair.137", ptr %7, i32 0, i32 1
  %12 = load ptr, ptr %6, align 8, !tbaa !128
  %13 = load i32, ptr %12, align 4, !tbaa !146
  store i32 %13, ptr %11, align 4, !tbaa !246
  ret void
}

; Function Attrs: inlinehint mustprogress nounwind uwtable
define internal noundef double @_ZN12_GLOBAL__N_17inCoordEid(i32 noundef %0, double noundef %1) #8 {
  %3 = alloca i32, align 4
  %4 = alloca double, align 8
  store i32 %0, ptr %3, align 4, !tbaa !146
  store double %1, ptr %4, align 8, !tbaa !170
  %5 = load i32, ptr %3, align 4, !tbaa !146
  %6 = sitofp i32 %5 to double
  %7 = load double, ptr %4, align 8, !tbaa !170
  %8 = fmul double %6, %7
  ret double %8
}

; Function Attrs: mustprogress uwtable
define linkonce_odr i64 @_ZSt9make_pairIRiS0_ESt4pairINSt25__strip_reference_wrapperINSt5decayIT_E4typeEE6__typeENS2_INS3_IT0_E4typeEE6__typeEEOS4_OS9_(ptr noundef nonnull align 4 dereferenceable(4) %0, ptr noundef nonnull align 4 dereferenceable(4) %1) #4 comdat {
  %3 = alloca %"struct.std::pair.137", align 4
  %4 = alloca ptr, align 8
  %5 = alloca ptr, align 8
  store ptr %0, ptr %4, align 8, !tbaa !128
  store ptr %1, ptr %5, align 8, !tbaa !128
  %6 = load ptr, ptr %4, align 8, !tbaa !128
  %7 = load ptr, ptr %5, align 8, !tbaa !128
  call void @_ZNSt4pairIiiEC2IRiS2_TnNSt9enable_ifIXaaclsr5_PCCPE22_MoveConstructiblePairIT_T0_EEclsr5_PCCPE30_ImplicitlyMoveConvertiblePairIS4_S5_EEEbE4typeELb1EEEOS4_OS5_(ptr noundef nonnull align 4 dereferenceable(8) %3, ptr noundef nonnull align 4 dereferenceable(4) %6, ptr noundef nonnull align 4 dereferenceable(4) %7)
  %8 = load i64, ptr %3, align 4
  ret i64 %8
}

; Function Attrs: inlinehint mustprogress uwtable
define internal noundef i32 @_ZN12_GLOBAL__N_19windowEndEid(i32 noundef %0, double noundef %1) #6 {
  %3 = alloca i32, align 4
  %4 = alloca double, align 8
  store i32 %0, ptr %3, align 4, !tbaa !146
  store double %1, ptr %4, align 8, !tbaa !170
  %5 = load i32, ptr %3, align 4, !tbaa !146
  %6 = add nsw i32 %5, 1
  %7 = load double, ptr %4, align 8, !tbaa !170
  %8 = call noundef double @_ZN12_GLOBAL__N_17inCoordEid(i32 noundef %6, double noundef %7)
  %9 = fsub double %8, 1.000000e-03
  %10 = call double @llvm.ceil.f64(double %9)
  %11 = fptosi double %10 to i32
  ret i32 %11
}

; Function Attrs: inlinehint mustprogress nounwind uwtable
define internal noundef i32 @_ZN12_GLOBAL__N_111windowStartEid(i32 noundef %0, double noundef %1) #8 {
  %3 = alloca i32, align 4
  %4 = alloca double, align 8
  store i32 %0, ptr %3, align 4, !tbaa !146
  store double %1, ptr %4, align 8, !tbaa !170
  %5 = load i32, ptr %3, align 4, !tbaa !146
  %6 = load double, ptr %4, align 8, !tbaa !170
  %7 = call noundef double @_ZN12_GLOBAL__N_17inCoordEid(i32 noundef %5, double noundef %6)
  %8 = fadd double %7, 1.000000e-03
  %9 = fptosi double %8 to i32
  ret i32 %9
}

; Function Attrs: mustprogress uwtable
define hidden i64 @_ZNK2cv5gimpl20FluidDownscaleMapper22linesReadAndNextWindowEii(ptr noundef nonnull align 8 dereferenceable(20) %0, i32 noundef %1, i32 noundef %2) unnamed_addr #4 align 2 {
  %4 = alloca %"struct.std::pair.137", align 4
  %5 = alloca ptr, align 8
  %6 = alloca i32, align 4
  %7 = alloca i32, align 4
  %8 = alloca i32, align 4
  %9 = alloca i32, align 4
  %10 = alloca i32, align 4
  %11 = alloca i32, align 4
  %12 = alloca i32, align 4
  %13 = alloca i32, align 4
  %14 = alloca i32, align 4
  store ptr %0, ptr %5, align 8, !tbaa !165
  store i32 %1, ptr %6, align 4, !tbaa !146
  store i32 %2, ptr %7, align 4, !tbaa !146
  %15 = load ptr, ptr %5, align 8
  call void @llvm.lifetime.start.p0(i64 4, ptr %8) #3
  %16 = load i32, ptr %6, align 4, !tbaa !146
  %17 = add nsw i32 %16, 1
  %18 = getelementptr inbounds nuw %"struct.cv::gimpl::FluidMapper", ptr %15, i32 0, i32 2
  %19 = load i32, ptr %18, align 8, !tbaa !171
  %20 = add nsw i32 %17, %19
  %21 = sub nsw i32 %20, 1
  store i32 %21, ptr %8, align 4, !tbaa !146
  call void @llvm.lifetime.start.p0(i64 4, ptr %9) #3
  %22 = load i32, ptr %8, align 4, !tbaa !146
  %23 = load i32, ptr %7, align 4, !tbaa !146
  %24 = add nsw i32 %22, %23
  %25 = sub nsw i32 %24, 1
  store i32 %25, ptr %9, align 4, !tbaa !146
  call void @llvm.lifetime.start.p0(i64 4, ptr %10) #3
  %26 = load i32, ptr %6, align 4, !tbaa !146
  %27 = getelementptr inbounds nuw %"struct.cv::gimpl::FluidMapper", ptr %15, i32 0, i32 1
  %28 = load double, ptr %27, align 8, !tbaa !167
  %29 = call noundef i32 @_ZN12_GLOBAL__N_111windowStartEid(i32 noundef %26, double noundef %28)
  store i32 %29, ptr %10, align 4, !tbaa !146
  call void @llvm.lifetime.start.p0(i64 4, ptr %11) #3
  %30 = load i32, ptr %8, align 4, !tbaa !146
  %31 = getelementptr inbounds nuw %"struct.cv::gimpl::FluidMapper", ptr %15, i32 0, i32 1
  %32 = load double, ptr %31, align 8, !tbaa !167
  %33 = call noundef i32 @_ZN12_GLOBAL__N_111windowStartEid(i32 noundef %30, double noundef %32)
  store i32 %33, ptr %11, align 4, !tbaa !146
  call void @llvm.lifetime.start.p0(i64 4, ptr %12) #3
  %34 = load i32, ptr %9, align 4, !tbaa !146
  %35 = getelementptr inbounds nuw %"struct.cv::gimpl::FluidMapper", ptr %15, i32 0, i32 1
  %36 = load double, ptr %35, align 8, !tbaa !167
  %37 = call noundef i32 @_ZN12_GLOBAL__N_19windowEndEid(i32 noundef %34, double noundef %36)
  store i32 %37, ptr %12, align 4, !tbaa !146
  call void @llvm.lifetime.start.p0(i64 4, ptr %13) #3
  %38 = load i32, ptr %11, align 4, !tbaa !146
  %39 = load i32, ptr %10, align 4, !tbaa !146
  %40 = sub nsw i32 %38, %39
  store i32 %40, ptr %13, align 4, !tbaa !146
  call void @llvm.lifetime.start.p0(i64 4, ptr %14) #3
  %41 = load i32, ptr %12, align 4, !tbaa !146
  %42 = load i32, ptr %11, align 4, !tbaa !146
  %43 = sub nsw i32 %41, %42
  store i32 %43, ptr %14, align 4, !tbaa !146
  %44 = call i64 @_ZSt9make_pairIRiS0_ESt4pairINSt25__strip_reference_wrapperINSt5decayIT_E4typeEE6__typeENS2_INS3_IT0_E4typeEE6__typeEEOS4_OS9_(ptr noundef nonnull align 4 dereferenceable(4) %13, ptr noundef nonnull align 4 dereferenceable(4) %14)
  store i64 %44, ptr %4, align 4
  call void @llvm.lifetime.end.p0(i64 4, ptr %14) #3
  call void @llvm.lifetime.end.p0(i64 4, ptr %13) #3
  call void @llvm.lifetime.end.p0(i64 4, ptr %12) #3
  call void @llvm.lifetime.end.p0(i64 4, ptr %11) #3
  call void @llvm.lifetime.end.p0(i64 4, ptr %10) #3
  call void @llvm.lifetime.end.p0(i64 4, ptr %9) #3
  call void @llvm.lifetime.end.p0(i64 4, ptr %8) #3
  %45 = load i64, ptr %4, align 4
  ret i64 %45
}