; Function Attrs: mustprogress nofree norecurse nosync nounwind willreturn memory(argmem: read) uwtable
define hidden i64 @_ZNK2cv5gimpl20FluidDownscaleMapper22linesReadAndNextWindowEii(ptr noundef nonnull readonly align 8 captures(none) dereferenceable(20) %0, i32 noundef %1, i32 noundef %2) unnamed_addr #9 align 2 {
  %4 = getelementptr inbounds nuw i8, ptr %0, i64 16
  %5 = load i32, ptr %4, align 8, !tbaa !183
  %6 = add i32 %5, %1
  %7 = add nsw i32 %6, %2
  %8 = getelementptr inbounds nuw i8, ptr %0, i64 8
  %9 = load double, ptr %8, align 8, !tbaa !180
  %10 = sitofp i32 %1 to double
  %11 = fmul double %9, %10
  %12 = fadd double %11, 1.000000e-03
  %13 = fptosi double %12 to i32
  %14 = sitofp i32 %6 to double
  %15 = fmul double %9, %14
  %16 = fadd double %15, 1.000000e-03
  %17 = fptosi double %16 to i32
  %18 = sitofp i32 %7 to double
  %19 = fmul double %9, %18
  %20 = fadd double %19, -1.000000e-03
  %21 = tail call double @llvm.ceil.f64(double %20)
  %22 = fptosi double %21 to i32
  %23 = sub nsw i32 %17, %13
  %24 = sub nsw i32 %22, %17
  %.sroa.2.0.insert.ext.i = zext i32 %24 to i64
  %.sroa.2.0.insert.shift.i = shl nuw i64 %.sroa.2.0.insert.ext.i, 32
  %.sroa.0.0.insert.ext.i = zext i32 %23 to i64
  %.sroa.0.0.insert.insert.i = or disjoint i64 %.sroa.2.0.insert.shift.i, %.sroa.0.0.insert.ext.i
  ret i64 %.sroa.0.0.insert.insert.i
}